; Function Attrs: nounwind uwtable
define ptr @l_Array_anyMUnsafe_any___at_Lean_Elab_Command_isMutualInductive___spec__1___rarg___lambda__2___boxed(ptr noundef %0, ptr noundef %1, ptr noundef %2, ptr noundef %3, ptr noundef %4, ptr noundef %5, ptr noundef %6) #1 {
  %8 = getelementptr i8, ptr %0, i64 8
  %.val19 = load i64, ptr %8, align 8, !tbaa !4
  %9 = ptrtoint ptr %0 to i64
  %10 = and i64 %9, 1
  %.not = icmp eq i64 %10, 0
  br i1 %.not, label %11, label %lean_dec.exit14

11:                                               ; preds = %7
  %12 = load i32, ptr %0, align 4, !tbaa !8
  %13 = icmp sgt i32 %12, 1
  br i1 %13, label %14, label %16, !prof !11

14:                                               ; preds = %11
  %15 = add nsw i32 %12, -1
  store i32 %15, ptr %0, align 4, !tbaa !8
  br label %lean_dec.exit14

16:                                               ; preds = %11
  %.not.i = icmp eq i32 %12, 0
  br i1 %.not.i, label %lean_dec.exit14, label %17

17:                                               ; preds = %16
  tail call void @lean_dec_ref_cold(ptr noundef nonnull %0) #5
  br label %lean_dec.exit14

lean_dec.exit14:                                  ; preds = %17, %16, %14, %7
  %18 = getelementptr i8, ptr %5, i64 8
  %.val = load i64, ptr %18, align 8, !tbaa !4
  %19 = ptrtoint ptr %5 to i64
  %20 = and i64 %19, 1
  %.not20 = icmp eq i64 %20, 0
  br i1 %.not20, label %21, label %lean_dec.exit13

21:                                               ; preds = %lean_dec.exit14
  %22 = load i32, ptr %5, align 4, !tbaa !8
  %23 = icmp sgt i32 %22, 1
  br i1 %23, label %24, label %26, !prof !11

24:                                               ; preds = %21
  %25 = add nsw i32 %22, -1
  store i32 %25, ptr %5, align 4, !tbaa !8
  br label %lean_dec.exit13

26:                                               ; preds = %21
  %.not.i15 = icmp eq i32 %22, 0
  br i1 %.not.i15, label %lean_dec.exit13, label %27

27:                                               ; preds = %26
  tail call void @lean_dec_ref_cold(ptr noundef nonnull %5) #5
  br label %lean_dec.exit13

lean_dec.exit13:                                  ; preds = %27, %26, %24, %lean_dec.exit14
  %28 = ptrtoint ptr %6 to i64
  %29 = and i64 %28, 1
  %.not21 = icmp eq i64 %29, 0
  br i1 %.not21, label %30, label %lean_dec.exit

30:                                               ; preds = %lean_dec.exit13
  %31 = load i32, ptr %6, align 4, !tbaa !8
  %32 = icmp sgt i32 %31, 1
  br i1 %32, label %33, label %35, !prof !11

33:                                               ; preds = %30
  %34 = add nsw i32 %31, -1
  store i32 %34, ptr %6, align 4, !tbaa !8
  br label %lean_dec.exit

35:                                               ; preds = %30
  %.not.i17 = icmp eq i32 %31, 0
  br i1 %.not.i17, label %lean_dec.exit, label %36

36:                                               ; preds = %35
  tail call void @lean_dec_ref_cold(ptr noundef nonnull %6) #5
  br label %lean_dec.exit

lean_dec.exit:                                    ; preds = %36, %35, %33, %lean_dec.exit13
  %37 = lshr i64 %28, 1
  %38 = trunc i64 %37 to i8
  %39 = tail call ptr @l_Array_anyMUnsafe_any___at_Lean_Elab_Command_isMutualInductive___spec__1___rarg___lambda__2(i64 noundef %.val19, ptr noundef %1, ptr noundef %2, ptr noundef %3, ptr noundef %4, i64 noundef %.val, i8 noundef zeroext %38)
  ret ptr %39
}